; Listing generated by Microsoft (R) Optimizing Compiler Version 19.51.36231.0 

include listing.inc

INCLUDELIB OLDNAMES

PUBLIC	??_C@_02KIEKHFCC@RU@				; `string'
PUBLIC	??_C@_0P@BCKFKEOP@?6?b?b?e?d?h?r?e?5?w?$OA?q?3?5@ ; `string'
PUBLIC	??_C@_0BB@HNLMFNO@?b?b?e?d?h?r?e?5?l?h?m?s?r?$PL?3?5@ ; `string'
PUBLIC	??_C@_0BC@BCECPLHK@?b?b?e?d?h?r?e?5?q?e?j?s?m?d?$PL?3?5@ ; `string'
PUBLIC	??_C@_0BK@KHCAIELC@?6?a?s?d?h?k?$PM?m?h?j?5?s?q?r?$OA?m?n?b?k?e?m?5?m?$OA?5@ ; `string'
PUBLIC	??_C@_01JLIPDDHJ@?3@				; `string'
PUBLIC	??_C@_0BN@CEPHJDDD@?6?A?s?d?h?k?$PM?m?h?j?5?g?b?n?m?h?r?$CB?$CB?$CB?$CB?$CB?$CB?$CB?$CB?$CB?$CB?$CB@ ; `string'
PUBLIC	??_C@_0BD@BKCBIGHM@?6?$MA?$MA?$MA?$MA?K?$MA?$MA?$MA?$MA?$MA?$MA?P?L?$CB?$CB?$CB?$CB@ ; `string'
PUBLIC	??_C@_0CB@JHDDIGKM@?M?$MA?F?L?H?R?E?5?M?$MA?5?O?P?N?A?E?K?5?D?K?$NP?5?N?R?J?K?$NO?W?E?M?H?$NP@ ; `string'
PUBLIC	??_C@_0BE@NJJKMNJJ@?6?a?s?d?h?k?$PM?m?h?j?5?b?$PL?j?k?$PO?w?e?m@ ; `string'
PUBLIC	??_C@_0BD@ICMGIFEJ@?o?p?n?c?p?$OA?l?l?$OA?5?g?$OA?o?s?y?e?m?$OA@ ; `string'
PUBLIC	??_C@_1BK@MHIKGOKE@?$AA?3?$AAA?$AAM?$AA?3?$AAa?$AAm?$AA?3?$AAP?$AAM?$AA?3?$AAp?$AAm@ ; `string'
PUBLIC	?alarmminute@@3HA				; alarmminute
PUBLIC	?alarmsecond@@3HA				; alarmsecond
PUBLIC	?alarmEnabled@@3_NA				; alarmEnabled
PUBLIC	?alarmhour@@3HA					; alarmhour
EXTRN	__imp_?_Getcvt@_Locinfo@std@@QEBA?AU_Cvtvec@@XZ:PROC
EXTRN	__imp_?_W_Getdays@_Locinfo@std@@QEBAPEBGXZ:PROC
EXTRN	__imp_?_W_Getmonths@_Locinfo@std@@QEBAPEBGXZ:PROC
EXTRN	__imp_?good@ios_base@std@@QEBA_NXZ:PROC
EXTRN	__imp_?flags@ios_base@std@@QEBAHXZ:PROC
EXTRN	__imp_?width@ios_base@std@@QEBA_JXZ:PROC
EXTRN	__imp_?width@ios_base@std@@QEAA_J_J@Z:PROC
EXTRN	__imp_??6?$basic_ostream@DU?$char_traits@D@std@@@std@@QEAAAEAV01@H@Z:PROC
EXTRN	__imp_??6?$basic_ostream@DU?$char_traits@D@std@@@std@@QEAAAEAV01@P6AAEAV01@AEAV01@@Z@Z:PROC
EXTRN	__imp_??5?$basic_istream@DU?$char_traits@D@std@@@std@@QEAAAEAV01@AEAH@Z:PROC
EXTRN	__imp_?flush@?$basic_ostream@DU?$char_traits@D@std@@@std@@QEAAAEAV12@XZ:PROC
EXTRN	__imp_?put@?$basic_ostream@DU?$char_traits@D@std@@@std@@QEAAAEAV12@D@Z:PROC
EXTRN	__imp_?sputn@?$basic_streambuf@DU?$char_traits@D@std@@@std@@QEAA_JPEBD_J@Z:PROC
EXTRN	__imp_?sputc@?$basic_streambuf@DU?$char_traits@D@std@@@std@@QEAAHD@Z:PROC
EXTRN	__imp_?widen@?$basic_ios@DU?$char_traits@D@std@@@std@@QEBADD@Z:PROC
EXTRN	__imp_?fill@?$basic_ios@DU?$char_traits@D@std@@@std@@QEBADXZ:PROC
EXTRN	__imp_?rdbuf@?$basic_ios@DU?$char_traits@D@std@@@std@@QEBAPEAV?$basic_streambuf@DU?$char_traits@D@std@@@2@XZ:PROC
EXTRN	__imp_?setstate@?$basic_ios@DU?$char_traits@D@std@@@std@@QEAAXH_N@Z:PROC
EXTRN	__imp_?_Osfx@?$basic_ostream@DU?$char_traits@D@std@@@std@@QEAAXXZ:PROC
EXTRN	__imp_?tie@?$basic_ios@DU?$char_traits@D@std@@@std@@QEBAPEAV?$basic_ostream@DU?$char_traits@D@std@@@2@XZ:PROC
EXTRN	__imp___std_terminate:PROC
EXTRN	__imp_Beep:PROC
EXTRN	__imp_GetLocalTime:PROC
EXTRN	__imp_GetAsyncKeyState:PROC
EXTRN	__imp_Sleep:PROC
EXTRN	__imp_?_Xbad_alloc@std@@YAXXZ:PROC
EXTRN	__imp_?cin@std@@3V?$basic_istream@DU?$char_traits@D@std@@@1@A:BYTE
EXTRN	__imp_?cout@std@@3V?$basic_ostream@DU?$char_traits@D@std@@@1@A:BYTE
EXTRN	__imp_?uncaught_exceptions@std@@YAHXZ:PROC
EXTRN	__imp_calloc:PROC
EXTRN	__imp_setlocale:PROC
EXTRN	__imp___CxxFrameHandler4:PROC
?alarmminute@@3HA DD 01H DUP (?)			; alarmminute
?alarmsecond@@3HA DD 01H DUP (?)			; alarmsecond
?alarmEnabled@@3_NA DB 01H DUP (?)			; alarmEnabled
	ALIGN	4

?alarmhour@@3HA DD 01H DUP (?)				; alarmhour
_BSS	ENDS
;	COMDAT ??_C@_1BK@MHIKGOKE@?$AA?3?$AAA?$AAM?$AA?3?$AAa?$AAm?$AA?3?$AAP?$AAM?$AA?3?$AAp?$AAm@
CONST	SEGMENT
??_C@_1BK@MHIKGOKE@?$AA?3?$AAA?$AAM?$AA?3?$AAa?$AAm?$AA?3?$AAP?$AAM?$AA?3?$AAp?$AAm@ DB ':'
	DB	00H, 'A', 00H, 'M', 00H, ':', 00H, 'a', 00H, 'm', 00H, ':', 00H
	DB	'P', 00H, 'M', 00H, ':', 00H, 'p', 00H, 'm', 00H, 00H, 00H ; `string'
CONST	ENDS
;	COMDAT ??_C@_0BD@ICMGIFEJ@?o?p?n?c?p?$OA?l?l?$OA?5?g?$OA?o?s?y?e?m?$OA@
CONST	SEGMENT
??_C@_0BD@ICMGIFEJ@?o?p?n?c?p?$OA?l?l?$OA?5?g?$OA?o?s?y?e?m?$OA@ DB 0efH, 0f0H
	DB	0eeH, 0e3H, 0f0H, 0e0H, 0ecH, 0ecH, 0e0H, ' ', 0e7H, 0e0H, 0efH
	DB	0f3H, 0f9H, 0e5H, 0edH, 0e0H, 00H		; `string'
CONST	ENDS
;	COMDAT ??_C@_0BE@NJJKMNJJ@?6?a?s?d?h?k?$PM?m?h?j?5?b?$PL?j?k?$PO?w?e?m@
CONST	SEGMENT
??_C@_0BE@NJJKMNJJ@?6?a?s?d?h?k?$PM?m?h?j?5?b?$PL?j?k?$PO?w?e?m@ DB 0aH, 0e1H
	DB	0f3H, 0e4H, 0e8H, 0ebH, 0fcH, 0edH, 0e8H, 0eaH, ' ', 0e2H, 0fbH
	DB	0eaH, 0ebH, 0feH, 0f7H, 0e5H, 0edH, 00H	; `string'
CONST	ENDS
;	COMDAT ??_C@_0CB@JHDDIGKM@?M?$MA?F?L?H?R?E?5?M?$MA?5?O?P?N?A?E?K?5?D?K?$NP?5?N?R?J?K?$NO?W?E?M?H?$NP@
CONST	SEGMENT
??_C@_0CB@JHDDIGKM@?M?$MA?F?L?H?R?E?5?M?$MA?5?O?P?N?A?E?K?5?D?K?$NP?5?N?R?J?K?$NO?W?E?M?H?$NP@ DB 0cdH
	DB	0c0H, 0c6H, 0ccH, 0c8H, 0d2H, 0c5H, ' ', 0cdH, 0c0H, ' ', 0cfH
	DB	0d0H, 0ceH, 0c1H, 0c5H, 0cbH, ' ', 0c4H, 0cbH, 0dfH, ' ', 0ceH
	DB	0d2H, 0caH, 0cbH, 0deH, 0d7H, 0c5H, 0cdH, 0c8H, 0dfH, 00H ; `string'
CONST	ENDS
;	COMDAT ??_C@_0BD@BKCBIGHM@?6?$MA?$MA?$MA?$MA?K?$MA?$MA?$MA?$MA?$MA?$MA?P?L?$CB?$CB?$CB?$CB@
CONST	SEGMENT
??_C@_0BD@BKCBIGHM@?6?$MA?$MA?$MA?$MA?K?$MA?$MA?$MA?$MA?$MA?$MA?P?L?$CB?$CB?$CB?$CB@ DB 0aH
	DB	0c0H, 0c0H, 0c0H, 0c0H, 0cbH, 0c0H, 0c0H, 0c0H, 0c0H, 0c0H, 0c0H
	DB	0d0H, 0ccH, '!!!!', 00H			; `string'
CONST	ENDS
;	COMDAT ??_C@_0BN@CEPHJDDD@?6?A?s?d?h?k?$PM?m?h?j?5?g?b?n?m?h?r?$CB?$CB?$CB?$CB?$CB?$CB?$CB?$CB?$CB?$CB?$CB@
CONST	SEGMENT
??_C@_0BN@CEPHJDDD@?6?A?s?d?h?k?$PM?m?h?j?5?g?b?n?m?h?r?$CB?$CB?$CB?$CB?$CB?$CB?$CB?$CB?$CB?$CB?$CB@ DB 0aH
	DB	0c1H, 0f3H, 0e4H, 0e8H, 0ebH, 0fcH, 0edH, 0e8H, 0eaH, ' ', 0e7H
	DB	0e2H, 0eeH, 0edH, 0e8H, 0f2H, '!!!!!!!!!!!', 00H ; `string'
CONST	ENDS
;	COMDAT ??_C@_01JLIPDDHJ@?3@
CONST	SEGMENT
??_C@_01JLIPDDHJ@?3@ DB ':', 00H			; `string'
CONST	ENDS
;	COMDAT ??_C@_0BK@KHCAIELC@?6?a?s?d?h?k?$PM?m?h?j?5?s?q?r?$OA?m?n?b?k?e?m?5?m?$OA?5@
CONST	SEGMENT
??_C@_0BK@KHCAIELC@?6?a?s?d?h?k?$PM?m?h?j?5?s?q?r?$OA?m?n?b?k?e?m?5?m?$OA?5@ DB 0aH
	DB	0e1H, 0f3H, 0e4H, 0e8H, 0ebH, 0fcH, 0edH, 0e8H, 0eaH, ' ', 0f3H
	DB	0f1H, 0f2H, 0e0H, 0edH, 0eeH, 0e2H, 0ebH, 0e5H, 0edH, ' ', 0edH
	DB	0e0H, ' ', 00H				; `string'
CONST	ENDS
;	COMDAT ??_C@_0BC@BCECPLHK@?b?b?e?d?h?r?e?5?q?e?j?s?m?d?$PL?3?5@
CONST	SEGMENT
??_C@_0BC@BCECPLHK@?b?b?e?d?h?r?e?5?q?e?j?s?m?d?$PL?3?5@ DB 0e2H, 0e2H, 0e5H
	DB	0e4H, 0e8H, 0f2H, 0e5H, ' ', 0f1H, 0e5H, 0eaH, 0f3H, 0edH, 0e4H
	DB	0fbH, ': ', 00H				; `string'
CONST	ENDS
;	COMDAT ??_C@_0BB@HNLMFNO@?b?b?e?d?h?r?e?5?l?h?m?s?r?$PL?3?5@
CONST	SEGMENT
??_C@_0BB@HNLMFNO@?b?b?e?d?h?r?e?5?l?h?m?s?r?$PL?3?5@ DB 0e2H, 0e2H, 0e5H
	DB	0e4H, 0e8H, 0f2H, 0e5H, ' ', 0ecH, 0e8H, 0edH, 0f3H, 0f2H, 0fbH
	DB	': ', 00H					; `string'
CONST	ENDS
;	COMDAT ??_C@_0P@BCKFKEOP@?6?b?b?e?d?h?r?e?5?w?$OA?q?3?5@
CONST	SEGMENT
??_C@_0P@BCKFKEOP@?6?b?b?e?d?h?r?e?5?w?$OA?q?3?5@ DB 0aH, 0e2H, 0e2H, 0e5H
	DB	0e4H, 0e8H, 0f2H, 0e5H, ' ', 0f7H, 0e0H, 0f1H, ': ', 00H ; `string'
CONST	ENDS
;	COMDAT ??_C@_02KIEKHFCC@RU@
CONST	SEGMENT
??_C@_02KIEKHFCC@RU@ DB 'RU', 00H			; `string'
CONST	ENDS
PUBLIC	??0_Sentry_base@?$basic_ostream@DU?$char_traits@D@std@@@std@@QEAA@AEAV12@@Z ; std::basic_ostream<char,std::char_traits<char> >::_Sentry_base::_Sentry_base
PUBLIC	??1_Sentry_base@?$basic_ostream@DU?$char_traits@D@std@@@std@@QEAA@XZ ; std::basic_ostream<char,std::char_traits<char> >::_Sentry_base::~_Sentry_base
PUBLIC	??$addressof@V?$basic_ostream@DU?$char_traits@D@std@@@std@@@std@@YAPEAV?$basic_ostream@DU?$char_traits@D@std@@@0@AEAV10@@Z ; std::addressof<std::basic_ostream<char,std::char_traits<char> > >
PUBLIC	?length@?$_Narrow_char_traits@DH@std@@SA_KQEBD@Z ; std::_Narrow_char_traits<char,int>::length
PUBLIC	?eq_int_type@?$_Narrow_char_traits@DH@std@@SA_NHH@Z ; std::_Narrow_char_traits<char,int>::eq_int_type
PUBLIC	?eof@?$_Narrow_char_traits@DH@std@@SAHXZ	; std::_Narrow_char_traits<char,int>::eof
PUBLIC	??0sentry@?$basic_ostream@DU?$char_traits@D@std@@@std@@QEAA@AEAV12@@Z ; std::basic_ostream<char,std::char_traits<char> >::sentry::sentry
PUBLIC	??1sentry@?$basic_ostream@DU?$char_traits@D@std@@@std@@QEAA@XZ ; std::basic_ostream<char,std::char_traits<char> >::sentry::~sentry
PUBLIC	??Bsentry@?$basic_ostream@DU?$char_traits@D@std@@@std@@QEBA_NXZ ; std::basic_ostream<char,std::char_traits<char> >::sentry::operator bool
PUBLIC	??$endl@DU?$char_traits@D@std@@@std@@YAAEAV?$basic_ostream@DU?$char_traits@D@std@@@0@AEAV10@@Z ; std::endl<char,std::char_traits<char> >
PUBLIC	??$?6U?$char_traits@D@std@@@std@@YAAEAV?$basic_ostream@DU?$char_traits@D@std@@@0@AEAV10@PEBD@Z ; std::operator<<<std::char_traits<char> >
PUBLIC	main
PUBLIC	?CheckAlarm@@YAXXZ				; CheckAlarm
PUBLIC	?ringAlarm@@YAXXZ				; ringAlarm
PUBLIC	?setAlarm@@YAXXZ				; setAlarm
EXTRN	__std_terminate:PROC
EXTRN	__CxxFrameHandler4:PROC
EXTRN	strlen:PROC
;	COMDAT pdata
pdata	SEGMENT
$pdata$??0_Sentry_base@?$basic_ostream@DU?$char_traits@D@std@@@std@@QEAA@AEAV12@@Z DD imagerel $LN11
	DD	imagerel $LN11+44
	DD	imagerel $unwind$??0_Sentry_base@?$basic_ostream@DU?$char_traits@D@std@@@std@@QEAA@AEAV12@@Z
pdata	ENDS
;	COMDAT pdata
pdata	SEGMENT
$pdata$??1_Sentry_base@?$basic_ostream@DU?$char_traits@D@std@@@std@@QEAA@XZ DD imagerel $LN12
	DD	imagerel $LN12+36
	DD	imagerel $unwind$??1_Sentry_base@?$basic_ostream@DU?$char_traits@D@std@@@std@@QEAA@XZ
pdata	ENDS
;	COMDAT pdata
pdata	SEGMENT
$pdata$??0sentry@?$basic_ostream@DU?$char_traits@D@std@@@std@@QEAA@AEAV12@@Z DD imagerel $LN22
	DD	imagerel $LN22+133
	DD	imagerel $unwind$??0sentry@?$basic_ostream@DU?$char_traits@D@std@@@std@@QEAA@AEAV12@@Z
pdata	ENDS
;	COMDAT pdata
pdata	SEGMENT
$pdata$??1sentry@?$basic_ostream@DU?$char_traits@D@std@@@std@@QEAA@XZ DD imagerel $LN18
	DD	imagerel $LN18+62
	DD	imagerel $unwind$??1sentry@?$basic_ostream@DU?$char_traits@D@std@@@std@@QEAA@XZ
pdata	ENDS
;	COMDAT pdata
pdata	SEGMENT
$pdata$??$endl@DU?$char_traits@D@std@@@std@@YAAEAV?$basic_ostream@DU?$char_traits@D@std@@@0@AEAV10@@Z DD imagerel $LN4
	DD	imagerel $LN4+56
	DD	imagerel $unwind$??$endl@DU?$char_traits@D@std@@@std@@YAAEAV?$basic_ostream@DU?$char_traits@D@std@@@0@AEAV10@@Z
pdata	ENDS
;	COMDAT pdata
pdata	SEGMENT
$pdata$??$?6U?$char_traits@D@std@@@std@@YAAEAV?$basic_ostream@DU?$char_traits@D@std@@@0@AEAV10@PEBD@Z DD imagerel $LN120
	DD	imagerel $LN120+361
	DD	imagerel $unwind$??$?6U?$char_traits@D@std@@@std@@YAAEAV?$basic_ostream@DU?$char_traits@D@std@@@0@AEAV10@PEBD@Z
pdata	ENDS
;	COMDAT pdata
pdata	SEGMENT
$pdata$?catch$14@?0???$?6U?$char_traits@D@std@@@std@@YAAEAV?$basic_ostream@DU?$char_traits@D@std@@@0@AEAV10@PEBD@Z@4HA DD imagerel ?catch$14@?0???$?6U?$char_traits@D@std@@@std@@YAAEAV?$basic_ostream@DU?$char_traits@D@std@@@0@AEAV10@PEBD@Z@4HA
	DD	imagerel ?catch$14@?0???$?6U?$char_traits@D@std@@@std@@YAAEAV?$basic_ostream@DU?$char_traits@D@std@@@0@AEAV10@PEBD@Z@4HA+59
	DD	imagerel $unwind$?catch$14@?0???$?6U?$char_traits@D@std@@@std@@YAAEAV?$basic_ostream@DU?$char_traits@D@std@@@0@AEAV10@PEBD@Z@4HA
pdata	ENDS
;	COMDAT pdata
pdata	SEGMENT
$pdata$main DD	imagerel $LN14
	DD	imagerel $LN14+384
	DD	imagerel $unwind$main
pdata	ENDS
;	COMDAT pdata
pdata	SEGMENT
$pdata$?CheckAlarm@@YAXXZ DD imagerel $LN18
	DD	imagerel $LN18+270
	DD	imagerel $unwind$?CheckAlarm@@YAXXZ
pdata	ENDS
;	COMDAT pdata
pdata	SEGMENT
$pdata$?ringAlarm@@YAXXZ DD imagerel $LN16
	DD	imagerel $LN16+194
	DD	imagerel $unwind$?ringAlarm@@YAXXZ
pdata	ENDS
;	COMDAT pdata
pdata	SEGMENT
$pdata$?setAlarm@@YAXXZ DD imagerel $LN4
	DD	imagerel $LN4+262
	DD	imagerel $unwind$?setAlarm@@YAXXZ
pdata	ENDS
;	COMDAT xdata
xdata	SEGMENT
$unwind$?setAlarm@@YAXXZ DD 010401H
	DD	04204H
xdata	ENDS
;	COMDAT xdata
xdata	SEGMENT
$unwind$?ringAlarm@@YAXXZ DD 020601H
	DD	030023206H
xdata	ENDS
;	COMDAT xdata
xdata	SEGMENT
$unwind$?CheckAlarm@@YAXXZ DD 020601H
	DD	030025206H
xdata	ENDS
;	COMDAT xdata
xdata	SEGMENT
$unwind$main DD	010401H
	DD	06204H
xdata	ENDS
;	COMDAT xdata
xdata	SEGMENT
$unwind$?catch$14@?0???$?6U?$char_traits@D@std@@@std@@YAAEAV?$basic_ostream@DU?$char_traits@D@std@@@0@AEAV10@PEBD@Z@4HA DD 020a01H
	DD	05006320aH
xdata	ENDS
;	COMDAT xdata
xdata	SEGMENT
$ip2state$??$?6U?$char_traits@D@std@@@std@@YAAEAV?$basic_ostream@DU?$char_traits@D@std@@@0@AEAV10@PEBD@Z DB 0aH
	DB	0a8H
	DB	00H
	DB	084H
	DB	04H
	DB	0c6H
	DB	02H
	DB	'L'
	DB	00H
	DB	'^'
	DB	08H
xdata	ENDS
;	COMDAT xdata
xdata	SEGMENT
$handlerMap$??$?6U?$char_traits@D@std@@@std@@YAAEAV?$basic_ostream@DU?$char_traits@D@std@@@0@AEAV10@PEBD@Z DB 02H
	DB	011H
	DB	080H
	DD	imagerel ?catch$14@?0???$?6U?$char_traits@D@std@@@std@@YAAEAV?$basic_ostream@DU?$char_traits@D@std@@@0@AEAV10@PEBD@Z@4HA
	DB	01H, 04H
xdata	ENDS
;	COMDAT xdata
xdata	SEGMENT
$tryMap$??$?6U?$char_traits@D@std@@@std@@YAAEAV?$basic_ostream@DU?$char_traits@D@std@@@0@AEAV10@PEBD@Z DB 02H
	DB	02H
	DB	02H
	DB	04H
	DD	imagerel $handlerMap$??$?6U?$char_traits@D@std@@@std@@YAAEAV?$basic_ostream@DU?$char_traits@D@std@@@0@AEAV10@PEBD@Z
xdata	ENDS
;	COMDAT xdata
xdata	SEGMENT
$stateUnwindMap$??$?6U?$char_traits@D@std@@@std@@YAAEAV?$basic_ostream@DU?$char_traits@D@std@@@0@AEAV10@PEBD@Z DB 08H
	DB	0aH
	DD	imagerel ??1sentry@?$basic_ostream@DU?$char_traits@D@std@@@std@@QEAA@XZ
	DB	040H
	DB	030H
	DB	038H
	DB	04eH
	DD	imagerel __imp___std_terminate
xdata	ENDS
;	COMDAT xdata
xdata	SEGMENT
$cppxdata$??$?6U?$char_traits@D@std@@@std@@YAAEAV?$basic_ostream@DU?$char_traits@D@std@@@0@AEAV10@PEBD@Z DB 038H
	DD	imagerel $stateUnwindMap$??$?6U?$char_traits@D@std@@@std@@YAAEAV?$basic_ostream@DU?$char_traits@D@std@@@0@AEAV10@PEBD@Z
	DD	imagerel $tryMap$??$?6U?$char_traits@D@std@@@std@@YAAEAV?$basic_ostream@DU?$char_traits@D@std@@@0@AEAV10@PEBD@Z
	DD	imagerel $ip2state$??$?6U?$char_traits@D@std@@@std@@YAAEAV?$basic_ostream@DU?$char_traits@D@std@@@0@AEAV10@PEBD@Z
xdata	ENDS
;	COMDAT xdata
xdata	SEGMENT
$unwind$??$?6U?$char_traits@D@std@@@std@@YAAEAV?$basic_ostream@DU?$char_traits@D@std@@@0@AEAV10@PEBD@Z DD 081819H
	DD	0d6418H
	DD	0b3418H
	DD	0f0145218H
	DD	07010e012H
	DD	imagerel __CxxFrameHandler4
	DD	imagerel $cppxdata$??$?6U?$char_traits@D@std@@@std@@YAAEAV?$basic_ostream@DU?$char_traits@D@std@@@0@AEAV10@PEBD@Z
xdata	ENDS
;	COMDAT xdata
xdata	SEGMENT
$unwind$??$endl@DU?$char_traits@D@std@@@std@@YAAEAV?$basic_ostream@DU?$char_traits@D@std@@@0@AEAV10@@Z DD 020601H
	DD	030023206H
xdata	ENDS
;	COMDAT xdata
xdata	SEGMENT
$ip2state$??1sentry@?$basic_ostream@DU?$char_traits@D@std@@@std@@QEAA@XZ DB 02H
	DB	'h'
	DB	02H
xdata	ENDS
;	COMDAT xdata
xdata	SEGMENT
$stateUnwindMap$??1sentry@?$basic_ostream@DU?$char_traits@D@std@@@std@@QEAA@XZ DB 02H
	DB	0eH
	DD	imagerel __imp___std_terminate
xdata	ENDS
;	COMDAT xdata
xdata	SEGMENT
$cppxdata$??1sentry@?$basic_ostream@DU?$char_traits@D@std@@@std@@QEAA@XZ DB 068H
	DD	imagerel $stateUnwindMap$??1sentry@?$basic_ostream@DU?$char_traits@D@std@@@std@@QEAA@XZ
	DD	imagerel $ip2state$??1sentry@?$basic_ostream@DU?$char_traits@D@std@@@std@@QEAA@XZ
xdata	ENDS
;	COMDAT xdata
xdata	SEGMENT
$unwind$??1sentry@?$basic_ostream@DU?$char_traits@D@std@@@std@@QEAA@XZ DD 020619H
	DD	030023206H
	DD	imagerel __CxxFrameHandler4
	DD	imagerel $cppxdata$??1sentry@?$basic_ostream@DU?$char_traits@D@std@@@std@@QEAA@XZ
xdata	ENDS
;	COMDAT xdata
xdata	SEGMENT
$ip2state$??0sentry@?$basic_ostream@DU?$char_traits@D@std@@@std@@QEAA@AEAV12@@Z DB 04H
	DB	'X'
	DB	00H
	DB	'\'
	DB	02H
xdata	ENDS
;	COMDAT xdata
xdata	SEGMENT
$stateUnwindMap$??0sentry@?$basic_ostream@DU?$char_traits@D@std@@@std@@QEAA@AEAV12@@Z DB 02H
	DB	0cH
	DD	imagerel ??1_Sentry_base@?$basic_ostream@DU?$char_traits@D@std@@@std@@QEAA@XZ
	DB	060H
xdata	ENDS
;	COMDAT xdata
xdata	SEGMENT
$cppxdata$??0sentry@?$basic_ostream@DU?$char_traits@D@std@@@std@@QEAA@AEAV12@@Z DB 028H
	DD	imagerel $stateUnwindMap$??0sentry@?$basic_ostream@DU?$char_traits@D@std@@@std@@QEAA@AEAV12@@Z
	DD	imagerel $ip2state$??0sentry@?$basic_ostream@DU?$char_traits@D@std@@@std@@QEAA@AEAV12@@Z
xdata	ENDS
;	COMDAT xdata
xdata	SEGMENT
$unwind$??0sentry@?$basic_ostream@DU?$char_traits@D@std@@@std@@QEAA@AEAV12@@Z DD 040f11H
	DD	07340fH
	DD	0700b320fH
	DD	imagerel __CxxFrameHandler4
	DD	imagerel $cppxdata$??0sentry@?$basic_ostream@DU?$char_traits@D@std@@@std@@QEAA@AEAV12@@Z
xdata	ENDS
;	COMDAT xdata
xdata	SEGMENT
$ip2state$??1_Sentry_base@?$basic_ostream@DU?$char_traits@D@std@@@std@@QEAA@XZ DB 02H
	DB	'6'
	DB	00H
xdata	ENDS
;	COMDAT xdata
xdata	SEGMENT
$cppxdata$??1_Sentry_base@?$basic_ostream@DU?$char_traits@D@std@@@std@@QEAA@XZ DB 060H
	DD	imagerel $ip2state$??1_Sentry_base@?$basic_ostream@DU?$char_traits@D@std@@@std@@QEAA@XZ
xdata	ENDS
;	COMDAT xdata
xdata	SEGMENT
$unwind$??1_Sentry_base@?$basic_ostream@DU?$char_traits@D@std@@@std@@QEAA@XZ DD 010419H
	DD	04204H
	DD	imagerel __CxxFrameHandler4
	DD	imagerel $cppxdata$??1_Sentry_base@?$basic_ostream@DU?$char_traits@D@std@@@std@@QEAA@XZ
xdata	ENDS
;	COMDAT xdata
xdata	SEGMENT
$unwind$??0_Sentry_base@?$basic_ostream@DU?$char_traits@D@std@@@std@@QEAA@AEAV12@@Z DD 020601H
	DD	030023206H
xdata	ENDS
; Function compile flags: /Ogspy
;	COMDAT ??0_Sentry_base@?$basic_ostream@DU?$char_traits@D@std@@@std@@QEAA@AEAV12@@Z
_TEXT	SEGMENT
this$ = 48
_Ostr$ = 56
??0_Sentry_base@?$basic_ostream@DU?$char_traits@D@std@@@std@@QEAA@AEAV12@@Z PROC ; std::basic_ostream<char,std::char_traits<char> >::_Sentry_base::_Sentry_base, COMDAT
; File C:\Program Files\Microsoft Visual Studio\18\Insiders\VC\Tools\MSVC\14.51.36231\include\__msvc_ostream.hpp
; Line 69
$LN11:
	push	rbx
	sub	rsp, 32					; 00000020H
	mov	QWORD PTR [rcx], rdx
	mov	rbx, rcx
; Line 70
	mov	rax, QWORD PTR [rdx]
	movsxd	r8, DWORD PTR [rax+4]
	mov	rcx, QWORD PTR [r8+rdx+72]
; Line 71
	test	rcx, rcx
	je	SHORT $LN2@Sentry_bas
; Line 72
	mov	rax, QWORD PTR [rcx]
	call	QWORD PTR [rax+8]
$LN2@Sentry_bas:
; Line 74
	mov	rax, rbx
	add	rsp, 32					; 00000020H
	pop	rbx
	ret	0
??0_Sentry_base@?$basic_ostream@DU?$char_traits@D@std@@@std@@QEAA@AEAV12@@Z ENDP ; std::basic_ostream<char,std::char_traits<char> >::_Sentry_base::_Sentry_base
_TEXT	ENDS
; Function compile flags: /Ogspy
;	COMDAT ??1_Sentry_base@?$basic_ostream@DU?$char_traits@D@std@@@std@@QEAA@XZ
_TEXT	SEGMENT
this$ = 48
??1_Sentry_base@?$basic_ostream@DU?$char_traits@D@std@@@std@@QEAA@XZ PROC ; std::basic_ostream<char,std::char_traits<char> >::_Sentry_base::~_Sentry_base, COMDAT
; File C:\Program Files\Microsoft Visual Studio\18\Insiders\VC\Tools\MSVC\14.51.36231\include\__msvc_ostream.hpp
; Line 76
$LN12:
	sub	rsp, 40					; 00000028H
; Line 77
	mov	rdx, QWORD PTR [rcx]
	mov	rax, QWORD PTR [rdx]
	movsxd	rcx, DWORD PTR [rax+4]
	mov	rcx, QWORD PTR [rcx+rdx+72]
; Line 78
	test	rcx, rcx
	je	SHORT $LN2@Sentry_bas
; Line 79
	mov	rax, QWORD PTR [rcx]
	call	QWORD PTR [rax+16]
	npad	1
$LN2@Sentry_bas:
; Line 81
	add	rsp, 40					; 00000028H
	ret	0
??1_Sentry_base@?$basic_ostream@DU?$char_traits@D@std@@@std@@QEAA@XZ ENDP ; std::basic_ostream<char,std::char_traits<char> >::_Sentry_base::~_Sentry_base
_TEXT	ENDS
; Function compile flags: /Ogspy
;	COMDAT ??$addressof@V?$basic_ostream@DU?$char_traits@D@std@@@std@@@std@@YAPEAV?$basic_ostream@DU?$char_traits@D@std@@@0@AEAV10@@Z
_TEXT	SEGMENT
_Val$ = 8
??$addressof@V?$basic_ostream@DU?$char_traits@D@std@@@std@@@std@@YAPEAV?$basic_ostream@DU?$char_traits@D@std@@@0@AEAV10@@Z PROC ; std::addressof<std::basic_ostream<char,std::char_traits<char> > >, COMDAT
; File C:\Program Files\Microsoft Visual Studio\18\Insiders\VC\Tools\MSVC\14.51.36231\include\type_traits
; Line 1656
	mov	rax, rcx
; Line 1657
	ret	0
??$addressof@V?$basic_ostream@DU?$char_traits@D@std@@@std@@@std@@YAPEAV?$basic_ostream@DU?$char_traits@D@std@@@0@AEAV10@@Z ENDP ; std::addressof<std::basic_ostream<char,std::char_traits<char> > >
_TEXT	ENDS
; Function compile flags: /Ogspy
;	COMDAT ?length@?$_Narrow_char_traits@DH@std@@SA_KQEBD@Z
_TEXT	SEGMENT
_First$ = 8
?length@?$_Narrow_char_traits@DH@std@@SA_KQEBD@Z PROC	; std::_Narrow_char_traits<char,int>::length, COMDAT
; File C:\Program Files\Microsoft Visual Studio\18\Insiders\VC\Tools\MSVC\14.51.36231\include\__msvc_string_view.hpp
; Line 554
	jmp	strlen
?length@?$_Narrow_char_traits@DH@std@@SA_KQEBD@Z ENDP	; std::_Narrow_char_traits<char,int>::length
_TEXT	ENDS
; Function compile flags: /Ogspy
;	COMDAT ?eq_int_type@?$_Narrow_char_traits@DH@std@@SA_NHH@Z
_TEXT	SEGMENT
_Left$ = 8
_Right$ = 16
?eq_int_type@?$_Narrow_char_traits@DH@std@@SA_NHH@Z PROC ; std::_Narrow_char_traits<char,int>::eq_int_type, COMDAT
; File C:\Program Files\Microsoft Visual Studio\18\Insiders\VC\Tools\MSVC\14.51.36231\include\__msvc_string_view.hpp
; Line 615
	cmp	ecx, edx
	sete	al
; Line 616
	ret	0
?eq_int_type@?$_Narrow_char_traits@DH@std@@SA_NHH@Z ENDP ; std::_Narrow_char_traits<char,int>::eq_int_type
_TEXT	ENDS
; Function compile flags: /Ogspy
;	COMDAT ?eof@?$_Narrow_char_traits@DH@std@@SAHXZ
_TEXT	SEGMENT
?eof@?$_Narrow_char_traits@DH@std@@SAHXZ PROC		; std::_Narrow_char_traits<char,int>::eof, COMDAT
; File C:\Program Files\Microsoft Visual Studio\18\Insiders\VC\Tools\MSVC\14.51.36231\include\__msvc_string_view.hpp
; Line 623
	or	eax, -1
; Line 624
	ret	0
?eof@?$_Narrow_char_traits@DH@std@@SAHXZ ENDP		; std::_Narrow_char_traits<char,int>::eof
_TEXT	ENDS
; Function compile flags: /Ogspy
;	COMDAT ??0sentry@?$basic_ostream@DU?$char_traits@D@std@@@std@@QEAA@AEAV12@@Z
_TEXT	SEGMENT
this$ = 48
_Ostr$ = 56
??0sentry@?$basic_ostream@DU?$char_traits@D@std@@@std@@QEAA@AEAV12@@Z PROC ; std::basic_ostream<char,std::char_traits<char> >::sentry::sentry, COMDAT
; File C:\Program Files\Microsoft Visual Studio\18\Insiders\VC\Tools\MSVC\14.51.36231\include\__msvc_ostream.hpp
; Line 90
$LN22:
	mov	QWORD PTR [rsp+16], rbx
	mov	QWORD PTR [rsp+8], rcx
	push	rdi
	sub	rsp, 32					; 00000020H
	mov	rbx, rdx
	mov	rdi, rcx
; Line 69
	mov	QWORD PTR [rcx], rdx
; Line 70
	mov	rax, QWORD PTR [rdx]
	movsxd	r8, DWORD PTR [rax+4]
	mov	rcx, QWORD PTR [r8+rdx+72]
; Line 71
	test	rcx, rcx
	je	SHORT $LN8@sentry
; Line 72
	mov	rax, QWORD PTR [rcx]
	call	QWORD PTR [rax+8]
	npad	1
$LN8@sentry:
; Line 91
	mov	rax, QWORD PTR [rbx]
	movsxd	rcx, DWORD PTR [rax+4]
	add	rcx, rbx
	call	QWORD PTR __imp_?good@ios_base@std@@QEBA_NXZ
	test	al, al
	je	SHORT $LN1@sentry
; Line 96
	mov	rax, QWORD PTR [rbx]
	movsxd	rcx, DWORD PTR [rax+4]
	mov	rcx, QWORD PTR [rcx+rbx+80]
; Line 97
	test	rcx, rcx
	je	SHORT $LN4@sentry
	cmp	rcx, rbx
	je	SHORT $LN4@sentry
; Line 102
	call	QWORD PTR __imp_?flush@?$basic_ostream@DU?$char_traits@D@std@@@std@@QEAAAEAV12@XZ
; Line 103
	mov	rax, QWORD PTR [rbx]
	movsxd	rcx, DWORD PTR [rax+4]
	add	rcx, rbx
	call	QWORD PTR __imp_?good@ios_base@std@@QEBA_NXZ
	jmp	SHORT $LN1@sentry
$LN4@sentry:
; Line 98
	mov	al, 1
$LN1@sentry:
; Line 104
	mov	BYTE PTR [rdi+8], al
	mov	rax, rdi
	mov	rbx, QWORD PTR [rsp+56]
	add	rsp, 32					; 00000020H
	pop	rdi
	ret	0
??0sentry@?$basic_ostream@DU?$char_traits@D@std@@@std@@QEAA@AEAV12@@Z ENDP ; std::basic_ostream<char,std::char_traits<char> >::sentry::sentry
_TEXT	ENDS
; Function compile flags: /Ogspy
;	COMDAT text$x
text$x	SEGMENT
this$ = 48
_Ostr$ = 56
?dtor$0@?0???0sentry@?$basic_ostream@DU?$char_traits@D@std@@@std@@QEAA@AEAV12@@Z@4HA PROC ; `std::basic_ostream<char,std::char_traits<char> >::sentry::sentry'::`1'::dtor$0
	mov	rcx, QWORD PTR this$[rdx]
	jmp	??1_Sentry_base@?$basic_ostream@DU?$char_traits@D@std@@@std@@QEAA@XZ ; std::basic_ostream<char,std::char_traits<char> >::_Sentry_base::~_Sentry_base
?dtor$0@?0???0sentry@?$basic_ostream@DU?$char_traits@D@std@@@std@@QEAA@AEAV12@@Z@4HA ENDP ; `std::basic_ostream<char,std::char_traits<char> >::sentry::sentry'::`1'::dtor$0
text$x	ENDS
; Function compile flags: /Ogspy
;	COMDAT ??1sentry@?$basic_ostream@DU?$char_traits@D@std@@@std@@QEAA@XZ
_TEXT	SEGMENT
this$ = 48
??1sentry@?$basic_ostream@DU?$char_traits@D@std@@@std@@QEAA@XZ PROC ; std::basic_ostream<char,std::char_traits<char> >::sentry::~sentry, COMDAT
; File C:\Program Files\Microsoft Visual Studio\18\Insiders\VC\Tools\MSVC\14.51.36231\include\__msvc_ostream.hpp
; Line 107
$LN18:
	push	rbx
	sub	rsp, 32					; 00000020H
	mov	rbx, rcx
; Line 113
	call	QWORD PTR __imp_?uncaught_exceptions@std@@YAHXZ
; Line 116
	test	eax, eax
	jne	SHORT $LN2@sentry
; Line 117
	mov	rcx, QWORD PTR [rbx]
	call	QWORD PTR __imp_?_Osfx@?$basic_ostream@DU?$char_traits@D@std@@@std@@QEAAXXZ
	npad	1
$LN2@sentry:
; Line 77
	mov	rdx, QWORD PTR [rbx]
	mov	rax, QWORD PTR [rdx]
	movsxd	rcx, DWORD PTR [rax+4]
	mov	rcx, QWORD PTR [rcx+rdx+72]
; Line 78
	test	rcx, rcx
	je	SHORT $LN6@sentry
; Line 79
	mov	rax, QWORD PTR [rcx]
	call	QWORD PTR [rax+16]
	npad	1
$LN6@sentry:
; Line 119
	add	rsp, 32					; 00000020H
	pop	rbx
	ret	0
??1sentry@?$basic_ostream@DU?$char_traits@D@std@@@std@@QEAA@XZ ENDP ; std::basic_ostream<char,std::char_traits<char> >::sentry::~sentry
_TEXT	ENDS
; Function compile flags: /Ogspy
;	COMDAT ??Bsentry@?$basic_ostream@DU?$char_traits@D@std@@@std@@QEBA_NXZ
_TEXT	SEGMENT
this$ = 8
??Bsentry@?$basic_ostream@DU?$char_traits@D@std@@@std@@QEBA_NXZ PROC ; std::basic_ostream<char,std::char_traits<char> >::sentry::operator bool, COMDAT
; File C:\Program Files\Microsoft Visual Studio\18\Insiders\VC\Tools\MSVC\14.51.36231\include\__msvc_ostream.hpp
; Line 123
	mov	al, BYTE PTR [rcx+8]
; Line 124
	ret	0
??Bsentry@?$basic_ostream@DU?$char_traits@D@std@@@std@@QEBA_NXZ ENDP ; std::basic_ostream<char,std::char_traits<char> >::sentry::operator bool
_TEXT	ENDS
; Function compile flags: /Ogspy
;	COMDAT ??$endl@DU?$char_traits@D@std@@@std@@YAAEAV?$basic_ostream@DU?$char_traits@D@std@@@0@AEAV10@@Z
_TEXT	SEGMENT
_Ostr$ = 48
??$endl@DU?$char_traits@D@std@@@std@@YAAEAV?$basic_ostream@DU?$char_traits@D@std@@@0@AEAV10@@Z PROC ; std::endl<char,std::char_traits<char> >, COMDAT
; File C:\Program Files\Microsoft Visual Studio\18\Insiders\VC\Tools\MSVC\14.51.36231\include\__msvc_ostream.hpp
; Line 1008
$LN4:
	push	rbx
	sub	rsp, 32					; 00000020H
; Line 1009
	mov	rax, QWORD PTR [rcx]
	mov	rbx, rcx
	mov	dl, 10
	movsxd	rcx, DWORD PTR [rax+4]
	add	rcx, rbx
	call	QWORD PTR __imp_?widen@?$basic_ios@DU?$char_traits@D@std@@@std@@QEBADD@Z
	mov	dl, al
	mov	rcx, rbx
	call	QWORD PTR __imp_?put@?$basic_ostream@DU?$char_traits@D@std@@@std@@QEAAAEAV12@D@Z
; Line 1010
	mov	rcx, rbx
	call	QWORD PTR __imp_?flush@?$basic_ostream@DU?$char_traits@D@std@@@std@@QEAAAEAV12@XZ
; Line 1011
	mov	rax, rbx
; Line 1012
	add	rsp, 32					; 00000020H
	pop	rbx
	ret	0
??$endl@DU?$char_traits@D@std@@@std@@YAAEAV?$basic_ostream@DU?$char_traits@D@std@@@0@AEAV10@@Z ENDP ; std::endl<char,std::char_traits<char> >
_TEXT	ENDS
; Function compile flags: /Ogspy
;	COMDAT ??$?6U?$char_traits@D@std@@@std@@YAAEAV?$basic_ostream@DU?$char_traits@D@std@@@0@AEAV10@PEBD@Z
_TEXT	SEGMENT
_Ok$ = 32
_Ostr$ = 80
_Val$ = 88
_State$ = 96
??$?6U?$char_traits@D@std@@@std@@YAAEAV?$basic_ostream@DU?$char_traits@D@std@@@0@AEAV10@PEBD@Z PROC ; std::operator<<<std::char_traits<char> >, COMDAT
; File C:\Program Files\Microsoft Visual Studio\18\Insiders\VC\Tools\MSVC\14.51.36231\include\__msvc_ostream.hpp
; Line 764
$LN120:
	mov	QWORD PTR [rsp+16], rbx
	mov	QWORD PTR [rsp+32], rsi
	mov	QWORD PTR [rsp+8], rcx
	push	rdi
	push	r14
	push	r15
	sub	rsp, 48					; 00000030H
	mov	r15, rdx
	mov	rdi, rcx
; Line 769
	xor	ebx, ebx
	mov	DWORD PTR _State$[rsp], ebx
; File C:\Program Files\Microsoft Visual Studio\18\Insiders\VC\Tools\MSVC\14.51.36231\include\__msvc_string_view.hpp
; Line 554
	mov	rcx, rdx
	call	strlen
	mov	r14, rax
; File C:\Program Files\Microsoft Visual Studio\18\Insiders\VC\Tools\MSVC\14.51.36231\include\__msvc_ostream.hpp
; Line 771
	mov	r8, QWORD PTR [rdi]
	movsxd	r9, DWORD PTR [r8+4]
; File C:\Program Files\Microsoft Visual Studio\18\Insiders\VC\Tools\MSVC\14.51.36231\include\xiosbase
; Line 269
	mov	rsi, QWORD PTR [r9+rdi+40]
; File C:\Program Files\Microsoft Visual Studio\18\Insiders\VC\Tools\MSVC\14.51.36231\include\__msvc_ostream.hpp
; Line 771
	test	rsi, rsi
	jle	SHORT $LN17@operator
	cmp	rsi, rax
	jle	SHORT $LN17@operator
	sub	rsi, rax
	jmp	SHORT $LN18@operator
$LN17@operator:
	xor	esi, esi
$LN18@operator:
; Line 772
	mov	rdx, rdi
	lea	rcx, QWORD PTR _Ok$[rsp]
	call	??0sentry@?$basic_ostream@DU?$char_traits@D@std@@@std@@QEAA@AEAV12@@Z ; std::basic_ostream<char,std::char_traits<char> >::sentry::sentry
	npad	1
; Line 774
	cmp	BYTE PTR _Ok$[rsp+8], 0
	jne	SHORT $LN8@operator
; Line 775
	mov	ebx, 4
; Line 776
	jmp	$LN22@operator
$LN8@operator:
; Line 778
	mov	rdx, QWORD PTR [rdi]
	movsxd	rax, DWORD PTR [rdx+4]
	mov	ecx, DWORD PTR [rax+rdi+24]
	and	ecx, 448				; 000001c0H
	cmp	ecx, 64					; 00000040H
	je	SHORT $LN108@operator
$LL4@operator:
; Line 779
	mov	rdx, QWORD PTR [rdi]
	test	rsi, rsi
	jle	SHORT $LN108@operator
; Line 780
	movsxd	rcx, DWORD PTR [rdx+4]
	mov	dl, BYTE PTR [rcx+rdi+88]
	mov	rcx, QWORD PTR [rcx+rdi+72]
	call	QWORD PTR __imp_?sputc@?$basic_streambuf@DU?$char_traits@D@std@@@std@@QEAAHD@Z
	cmp	eax, -1
	je	SHORT $LN117@operator
; Line 779
	dec	rsi
	jmp	SHORT $LL4@operator
$LN108@operator:
; Line 787
	movsxd	rcx, DWORD PTR [rdx+4]
	mov	r8, r14
	mov	rdx, r15
	mov	rcx, QWORD PTR [rcx+rdi+72]
	call	QWORD PTR __imp_?sputn@?$basic_streambuf@DU?$char_traits@D@std@@@std@@QEAA_JPEBD_J@Z
	cmp	rax, r14
	jne	SHORT $LN117@operator
$LL7@operator:
; Line 792
	test	rsi, rsi
	jle	SHORT $LN6@operator
; Line 793
	mov	rax, QWORD PTR [rdi]
	movsxd	rcx, DWORD PTR [rax+4]
	mov	dl, BYTE PTR [rcx+rdi+88]
	mov	rcx, QWORD PTR [rcx+rdi+72]
	call	QWORD PTR __imp_?sputc@?$basic_streambuf@DU?$char_traits@D@std@@@std@@QEAAHD@Z
	cmp	eax, -1
	jne	SHORT $LN5@operator
$LN117@operator:
; Line 800
	mov	ebx, 4
	mov	DWORD PTR _State$[rsp], ebx
$LN6@operator:
	mov	rax, QWORD PTR [rdi]
	movsxd	rcx, DWORD PTR [rax+4]
; File C:\Program Files\Microsoft Visual Studio\18\Insiders\VC\Tools\MSVC\14.51.36231\include\xiosbase
; Line 275
	mov	QWORD PTR [rcx+rdi+40], 0
; File C:\Program Files\Microsoft Visual Studio\18\Insiders\VC\Tools\MSVC\14.51.36231\include\__msvc_ostream.hpp
	jmp	SHORT $LN22@operator
$LN5@operator:
; Line 792
	dec	rsi
	jmp	SHORT $LL7@operator
$LN23@operator:
; File C:\Program Files\Microsoft Visual Studio\18\Insiders\VC\Tools\MSVC\14.51.36231\include\xiosbase
	mov	rdi, QWORD PTR _Ostr$[rsp]
	mov	ebx, DWORD PTR _State$[rsp]
$LN22@operator:
; File C:\Program Files\Microsoft Visual Studio\18\Insiders\VC\Tools\MSVC\14.51.36231\include\__msvc_ostream.hpp
; Line 804
	mov	rax, QWORD PTR [rdi]
	movsxd	rcx, DWORD PTR [rax+4]
	add	rcx, rdi
	xor	r8d, r8d
	mov	edx, ebx
	call	QWORD PTR __imp_?setstate@?$basic_ios@DU?$char_traits@D@std@@@std@@QEAAXH_N@Z
	npad	1
; Line 113
	call	QWORD PTR __imp_?uncaught_exceptions@std@@YAHXZ
; Line 116
	test	eax, eax
	jne	SHORT $LN25@operator
; Line 117
	mov	rcx, QWORD PTR _Ok$[rsp]
	call	QWORD PTR __imp_?_Osfx@?$basic_ostream@DU?$char_traits@D@std@@@std@@QEAAXXZ
	npad	1
$LN25@operator:
; Line 77
	mov	rdx, QWORD PTR _Ok$[rsp]
	mov	rax, QWORD PTR [rdx]
	movsxd	rcx, DWORD PTR [rax+4]
	mov	rcx, QWORD PTR [rcx+rdx+72]
; Line 78
	test	rcx, rcx
	je	SHORT $LN31@operator
; Line 79
	mov	rax, QWORD PTR [rcx]
	call	QWORD PTR [rax+16]
	npad	1
$LN31@operator:
; Line 805
	mov	rax, rdi
; Line 806
	mov	rbx, QWORD PTR [rsp+88]
	mov	rsi, QWORD PTR [rsp+104]
	add	rsp, 48					; 00000030H
	pop	r15
	pop	r14
	pop	rdi
	ret	0
??$?6U?$char_traits@D@std@@@std@@YAAEAV?$basic_ostream@DU?$char_traits@D@std@@@0@AEAV10@PEBD@Z ENDP ; std::operator<<<std::char_traits<char> >
_TEXT	ENDS
; Function compile flags: /Ogspy
;	COMDAT text$x
text$x	SEGMENT
_Ok$ = 32
_Ostr$ = 80
_Val$ = 88
_State$ = 96
?dtor$0@?0???$?6U?$char_traits@D@std@@@std@@YAAEAV?$basic_ostream@DU?$char_traits@D@std@@@0@AEAV10@PEBD@Z@4HA PROC ; `std::operator<<<std::char_traits<char> >'::`1'::dtor$0
	lea	rcx, QWORD PTR _Ok$[rdx]
	jmp	??1sentry@?$basic_ostream@DU?$char_traits@D@std@@@std@@QEAA@XZ ; std::basic_ostream<char,std::char_traits<char> >::sentry::~sentry
?dtor$0@?0???$?6U?$char_traits@D@std@@@std@@YAAEAV?$basic_ostream@DU?$char_traits@D@std@@@0@AEAV10@PEBD@Z@4HA ENDP ; `std::operator<<<std::char_traits<char> >'::`1'::dtor$0
text$x	ENDS
; Function compile flags: /Ogspy
;	COMDAT text$x
text$x	SEGMENT
_Ok$ = 32
_Ostr$ = 80
_Val$ = 88
_State$ = 96
?catch$14@?0???$?6U?$char_traits@D@std@@@std@@YAAEAV?$basic_ostream@DU?$char_traits@D@std@@@0@AEAV10@PEBD@Z@4HA PROC ; `std::operator<<<std::char_traits<char> >'::`1'::catch$14
; Line 801
	mov	QWORD PTR [rsp+16], rdx
	push	rbp
	sub	rsp, 32					; 00000020H
	mov	rbp, rdx
__catch$??$?6U?$char_traits@D@std@@@std@@YAAEAV?$basic_ostream@DU?$char_traits@D@std@@@0@AEAV10@PEBD@Z$0:
	mov	rdx, QWORD PTR _Ostr$[rbp]
	mov	rax, QWORD PTR [rdx]
	movsxd	rcx, DWORD PTR [rax+4]
	add	rcx, rdx
	mov	r8b, 1
	mov	edx, 4
	call	QWORD PTR __imp_?setstate@?$basic_ios@DU?$char_traits@D@std@@@std@@QEAAXH_N@Z
	npad	1
	mov	rax, 0
	add	rsp, 32					; 00000020H
	pop	rbp
	ret	0
	int	3
?catch$14@?0???$?6U?$char_traits@D@std@@@std@@YAAEAV?$basic_ostream@DU?$char_traits@D@std@@@0@AEAV10@PEBD@Z@4HA ENDP ; `std::operator<<<std::char_traits<char> >'::`1'::catch$14
text$x	ENDS
; Function compile flags: /Ogspy
;	COMDAT main
_TEXT	SEGMENT
t$1 = 32
main	PROC						; COMDAT
; File C:\sharaga\project\work\progect\progect\progect.cpp
; Line 69
$LN14:
	sub	rsp, 56					; 00000038H
; Line 70
	lea	rdx, OFFSET FLAT:??_C@_02KIEKHFCC@RU@
	xor	ecx, ecx
	call	QWORD PTR __imp_setlocale
; Line 71
	mov	rcx, QWORD PTR __imp_?cout@std@@3V?$basic_ostream@DU?$char_traits@D@std@@@1@A
	lea	rdx, OFFSET FLAT:??_C@_0BD@ICMGIFEJ@?o?p?n?c?p?$OA?l?l?$OA?5?g?$OA?o?s?y?e?m?$OA@
	call	??$?6U?$char_traits@D@std@@@std@@YAAEAV?$basic_ostream@DU?$char_traits@D@std@@@0@AEAV10@PEBD@Z ; std::operator<<<std::char_traits<char> >
	mov	rcx, rax
	lea	rdx, OFFSET FLAT:??$endl@DU?$char_traits@D@std@@@std@@YAAEAV?$basic_ostream@DU?$char_traits@D@std@@@0@AEAV10@@Z ; std::endl<char,std::char_traits<char> >
	call	QWORD PTR __imp_??6?$basic_ostream@DU?$char_traits@D@std@@@std@@QEAAAEAV01@P6AAEAV01@AEAV01@@Z@Z
; Line 13
	lea	rdx, OFFSET FLAT:??_C@_02KIEKHFCC@RU@
	xor	ecx, ecx
	call	QWORD PTR __imp_setlocale
; Line 14
	mov	rcx, QWORD PTR __imp_?cout@std@@3V?$basic_ostream@DU?$char_traits@D@std@@@1@A
	lea	rdx, OFFSET FLAT:??_C@_0P@BCKFKEOP@?6?b?b?e?d?h?r?e?5?w?$OA?q?3?5@
	call	??$?6U?$char_traits@D@std@@@std@@YAAEAV?$basic_ostream@DU?$char_traits@D@std@@@0@AEAV10@PEBD@Z ; std::operator<<<std::char_traits<char> >
; Line 15
	mov	rcx, QWORD PTR __imp_?cin@std@@3V?$basic_istream@DU?$char_traits@D@std@@@1@A
	lea	rdx, OFFSET FLAT:?alarmhour@@3HA	; alarmhour
	call	QWORD PTR __imp_??5?$basic_istream@DU?$char_traits@D@std@@@std@@QEAAAEAV01@AEAH@Z
; Line 16
	mov	rcx, QWORD PTR __imp_?cout@std@@3V?$basic_ostream@DU?$char_traits@D@std@@@1@A
	lea	rdx, OFFSET FLAT:??_C@_0BB@HNLMFNO@?b?b?e?d?h?r?e?5?l?h?m?s?r?$PL?3?5@
	call	??$?6U?$char_traits@D@std@@@std@@YAAEAV?$basic_ostream@DU?$char_traits@D@std@@@0@AEAV10@PEBD@Z ; std::operator<<<std::char_traits<char> >
; Line 17
	mov	rcx, QWORD PTR __imp_?cin@std@@3V?$basic_istream@DU?$char_traits@D@std@@@1@A
	lea	rdx, OFFSET FLAT:?alarmminute@@3HA	; alarmminute
	call	QWORD PTR __imp_??5?$basic_istream@DU?$char_traits@D@std@@@std@@QEAAAEAV01@AEAH@Z
; Line 18
	mov	rcx, QWORD PTR __imp_?cout@std@@3V?$basic_ostream@DU?$char_traits@D@std@@@1@A
	lea	rdx, OFFSET FLAT:??_C@_0BC@BCECPLHK@?b?b?e?d?h?r?e?5?q?e?j?s?m?d?$PL?3?5@
	call	??$?6U?$char_traits@D@std@@@std@@YAAEAV?$basic_ostream@DU?$char_traits@D@std@@@0@AEAV10@PEBD@Z ; std::operator<<<std::char_traits<char> >
; Line 19
	mov	rcx, QWORD PTR __imp_?cin@std@@3V?$basic_istream@DU?$char_traits@D@std@@@1@A
	lea	rdx, OFFSET FLAT:?alarmsecond@@3HA	; alarmsecond
	call	QWORD PTR __imp_??5?$basic_istream@DU?$char_traits@D@std@@@std@@QEAAAEAV01@AEAH@Z
; Line 23
	mov	rcx, QWORD PTR __imp_?cout@std@@3V?$basic_ostream@DU?$char_traits@D@std@@@1@A
	lea	rdx, OFFSET FLAT:??_C@_0BK@KHCAIELC@?6?a?s?d?h?k?$PM?m?h?j?5?s?q?r?$OA?m?n?b?k?e?m?5?m?$OA?5@
	mov	BYTE PTR ?alarmEnabled@@3_NA, 1		; alarmEnabled
	call	??$?6U?$char_traits@D@std@@@std@@YAAEAV?$basic_ostream@DU?$char_traits@D@std@@@0@AEAV10@PEBD@Z ; std::operator<<<std::char_traits<char> >
; Line 24
	mov	edx, DWORD PTR ?alarmhour@@3HA		; alarmhour
	mov	rcx, QWORD PTR __imp_?cout@std@@3V?$basic_ostream@DU?$char_traits@D@std@@@1@A
	call	QWORD PTR __imp_??6?$basic_ostream@DU?$char_traits@D@std@@@std@@QEAAAEAV01@H@Z
	mov	rcx, rax
	lea	rdx, OFFSET FLAT:??_C@_01JLIPDDHJ@?3@
	call	??$?6U?$char_traits@D@std@@@std@@YAAEAV?$basic_ostream@DU?$char_traits@D@std@@@0@AEAV10@PEBD@Z ; std::operator<<<std::char_traits<char> >
	mov	edx, DWORD PTR ?alarmminute@@3HA	; alarmminute
	mov	rcx, rax
	call	QWORD PTR __imp_??6?$basic_ostream@DU?$char_traits@D@std@@@std@@QEAAAEAV01@H@Z
	mov	rcx, rax
	lea	rdx, OFFSET FLAT:??_C@_01JLIPDDHJ@?3@
	call	??$?6U?$char_traits@D@std@@@std@@YAAEAV?$basic_ostream@DU?$char_traits@D@std@@@0@AEAV10@PEBD@Z ; std::operator<<<std::char_traits<char> >
	mov	edx, DWORD PTR ?alarmsecond@@3HA	; alarmsecond
	mov	rcx, rax
	call	QWORD PTR __imp_??6?$basic_ostream@DU?$char_traits@D@std@@@std@@QEAAAEAV01@H@Z
	mov	rcx, rax
	lea	rdx, OFFSET FLAT:??$endl@DU?$char_traits@D@std@@@std@@YAAEAV?$basic_ostream@DU?$char_traits@D@std@@@0@AEAV10@@Z ; std::endl<char,std::char_traits<char> >
	call	QWORD PTR __imp_??6?$basic_ostream@DU?$char_traits@D@std@@@std@@QEAAAEAV01@P6AAEAV01@AEAV01@@Z@Z
$LL2@main:
; Line 53
	lea	rcx, QWORD PTR t$1[rsp]
	call	QWORD PTR __imp_GetLocalTime
; Line 61
	cmp	BYTE PTR ?alarmEnabled@@3_NA, 0		; alarmEnabled
	je	SHORT $LN8@main
	movzx	eax, WORD PTR t$1[rsp+8]
	cmp	eax, DWORD PTR ?alarmhour@@3HA		; alarmhour
	jne	SHORT $LN8@main
	movzx	eax, WORD PTR t$1[rsp+10]
	cmp	eax, DWORD PTR ?alarmminute@@3HA	; alarmminute
	jne	SHORT $LN8@main
	movzx	eax, WORD PTR t$1[rsp+12]
	cmp	eax, DWORD PTR ?alarmsecond@@3HA	; alarmsecond
	jne	SHORT $LN8@main
; Line 64
	call	?ringAlarm@@YAXXZ			; ringAlarm
$LN8@main:
; Line 78
	mov	ecx, 1000				; 000003e8H
	call	QWORD PTR __imp_Sleep
; Line 79
	jmp	SHORT $LL2@main
main	ENDP
_TEXT	ENDS
; Function compile flags: /Ogspy
;	COMDAT ?CheckAlarm@@YAXXZ
_TEXT	SEGMENT
t$ = 32
?CheckAlarm@@YAXXZ PROC					; CheckAlarm, COMDAT
; File C:\sharaga\project\work\progect\progect\progect.cpp
; Line 51
$LN18:
	push	rbx
	sub	rsp, 48					; 00000030H
; Line 53
	lea	rcx, QWORD PTR t$[rsp]
	call	QWORD PTR __imp_GetLocalTime
; Line 61
	cmp	BYTE PTR ?alarmEnabled@@3_NA, 0		; alarmEnabled
	je	$LN6@CheckAlarm
	movzx	eax, WORD PTR t$[rsp+8]
	cmp	eax, DWORD PTR ?alarmhour@@3HA		; alarmhour
	jne	$LN6@CheckAlarm
	movzx	eax, WORD PTR t$[rsp+10]
	cmp	eax, DWORD PTR ?alarmminute@@3HA	; alarmminute
	jne	$LN6@CheckAlarm
	movzx	eax, WORD PTR t$[rsp+12]
	cmp	eax, DWORD PTR ?alarmsecond@@3HA	; alarmsecond
	jne	$LN6@CheckAlarm
; Line 29
	lea	rdx, OFFSET FLAT:??_C@_02KIEKHFCC@RU@
	xor	ecx, ecx
	call	QWORD PTR __imp_setlocale
; Line 30
	mov	rcx, QWORD PTR __imp_?cout@std@@3V?$basic_ostream@DU?$char_traits@D@std@@@1@A
	lea	rdx, OFFSET FLAT:??_C@_0BN@CEPHJDDD@?6?A?s?d?h?k?$PM?m?h?j?5?g?b?n?m?h?r?$CB?$CB?$CB?$CB?$CB?$CB?$CB?$CB?$CB?$CB?$CB@
	call	??$?6U?$char_traits@D@std@@@std@@YAAEAV?$basic_ostream@DU?$char_traits@D@std@@@0@AEAV10@PEBD@Z ; std::operator<<<std::char_traits<char> >
	lea	rbx, OFFSET FLAT:??$endl@DU?$char_traits@D@std@@@std@@YAAEAV?$basic_ostream@DU?$char_traits@D@std@@@0@AEAV10@@Z ; std::endl<char,std::char_traits<char> >
	mov	rcx, rax
	mov	rdx, rbx
	call	QWORD PTR __imp_??6?$basic_ostream@DU?$char_traits@D@std@@@std@@QEAAAEAV01@P6AAEAV01@AEAV01@@Z@Z
; Line 39
	jmp	SHORT $LN16@CheckAlarm
$LL5@CheckAlarm:
; Line 46
	mov	ecx, 100				; 00000064H
	call	QWORD PTR __imp_Sleep
$LN16@CheckAlarm:
; Line 39
	mov	rcx, QWORD PTR __imp_?cout@std@@3V?$basic_ostream@DU?$char_traits@D@std@@@1@A
	lea	rdx, OFFSET FLAT:??_C@_0BD@BKCBIGHM@?6?$MA?$MA?$MA?$MA?K?$MA?$MA?$MA?$MA?$MA?$MA?P?L?$CB?$CB?$CB?$CB@
	call	??$?6U?$char_traits@D@std@@@std@@YAAEAV?$basic_ostream@DU?$char_traits@D@std@@@0@AEAV10@PEBD@Z ; std::operator<<<std::char_traits<char> >
	mov	rdx, rbx
	mov	rcx, rax
	call	QWORD PTR __imp_??6?$basic_ostream@DU?$char_traits@D@std@@@std@@QEAAAEAV01@P6AAEAV01@AEAV01@@Z@Z
	mov	rcx, QWORD PTR __imp_?cout@std@@3V?$basic_ostream@DU?$char_traits@D@std@@@1@A
	lea	rdx, OFFSET FLAT:??_C@_0CB@JHDDIGKM@?M?$MA?F?L?H?R?E?5?M?$MA?5?O?P?N?A?E?K?5?D?K?$NP?5?N?R?J?K?$NO?W?E?M?H?$NP@
	call	??$?6U?$char_traits@D@std@@@std@@YAAEAV?$basic_ostream@DU?$char_traits@D@std@@@0@AEAV10@PEBD@Z ; std::operator<<<std::char_traits<char> >
	mov	rdx, rbx
	mov	rcx, rax
	call	QWORD PTR __imp_??6?$basic_ostream@DU?$char_traits@D@std@@@std@@QEAAAEAV01@P6AAEAV01@AEAV01@@Z@Z
	mov	edx, 1000				; 000003e8H
	mov	ecx, edx
	call	QWORD PTR __imp_Beep
	mov	ecx, 32					; 00000020H
	call	QWORD PTR __imp_GetAsyncKeyState
	test	ax, ax
	je	SHORT $LL5@CheckAlarm
; Line 42
	mov	rcx, QWORD PTR __imp_?cout@std@@3V?$basic_ostream@DU?$char_traits@D@std@@@1@A
	lea	rdx, OFFSET FLAT:??_C@_0BE@NJJKMNJJ@?6?a?s?d?h?k?$PM?m?h?j?5?b?$PL?j?k?$PO?w?e?m@
	mov	BYTE PTR ?alarmEnabled@@3_NA, 0		; alarmEnabled
	call	??$?6U?$char_traits@D@std@@@std@@YAAEAV?$basic_ostream@DU?$char_traits@D@std@@@0@AEAV10@PEBD@Z ; std::operator<<<std::char_traits<char> >
$LN6@CheckAlarm:
; Line 66
	add	rsp, 48					; 00000030H
	pop	rbx
	ret	0
?CheckAlarm@@YAXXZ ENDP					; CheckAlarm
_TEXT	ENDS
; Function compile flags: /Ogspy
;	COMDAT ?ringAlarm@@YAXXZ
_TEXT	SEGMENT
?ringAlarm@@YAXXZ PROC					; ringAlarm, COMDAT
; File C:\sharaga\project\work\progect\progect\progect.cpp
; Line 28
$LN16:
	push	rbx
	sub	rsp, 32					; 00000020H
; Line 29
	lea	rdx, OFFSET FLAT:??_C@_02KIEKHFCC@RU@
	xor	ecx, ecx
	call	QWORD PTR __imp_setlocale
; Line 30
	mov	rcx, QWORD PTR __imp_?cout@std@@3V?$basic_ostream@DU?$char_traits@D@std@@@1@A
	lea	rdx, OFFSET FLAT:??_C@_0BN@CEPHJDDD@?6?A?s?d?h?k?$PM?m?h?j?5?g?b?n?m?h?r?$CB?$CB?$CB?$CB?$CB?$CB?$CB?$CB?$CB?$CB?$CB@
	call	??$?6U?$char_traits@D@std@@@std@@YAAEAV?$basic_ostream@DU?$char_traits@D@std@@@0@AEAV10@PEBD@Z ; std::operator<<<std::char_traits<char> >
	lea	rbx, OFFSET FLAT:??$endl@DU?$char_traits@D@std@@@std@@YAAEAV?$basic_ostream@DU?$char_traits@D@std@@@0@AEAV10@@Z ; std::endl<char,std::char_traits<char> >
	mov	rcx, rax
	mov	rdx, rbx
	call	QWORD PTR __imp_??6?$basic_ostream@DU?$char_traits@D@std@@@std@@QEAAAEAV01@P6AAEAV01@AEAV01@@Z@Z
; Line 39
	jmp	SHORT $LN14@ringAlarm
$LL2@ringAlarm:
; Line 46
	mov	ecx, 100				; 00000064H
	call	QWORD PTR __imp_Sleep
$LN14@ringAlarm:
; Line 39
	mov	rcx, QWORD PTR __imp_?cout@std@@3V?$basic_ostream@DU?$char_traits@D@std@@@1@A
	lea	rdx, OFFSET FLAT:??_C@_0BD@BKCBIGHM@?6?$MA?$MA?$MA?$MA?K?$MA?$MA?$MA?$MA?$MA?$MA?P?L?$CB?$CB?$CB?$CB@
	call	??$?6U?$char_traits@D@std@@@std@@YAAEAV?$basic_ostream@DU?$char_traits@D@std@@@0@AEAV10@PEBD@Z ; std::operator<<<std::char_traits<char> >
	mov	rdx, rbx
	mov	rcx, rax
	call	QWORD PTR __imp_??6?$basic_ostream@DU?$char_traits@D@std@@@std@@QEAAAEAV01@P6AAEAV01@AEAV01@@Z@Z
	mov	rcx, QWORD PTR __imp_?cout@std@@3V?$basic_ostream@DU?$char_traits@D@std@@@1@A
	lea	rdx, OFFSET FLAT:??_C@_0CB@JHDDIGKM@?M?$MA?F?L?H?R?E?5?M?$MA?5?O?P?N?A?E?K?5?D?K?$NP?5?N?R?J?K?$NO?W?E?M?H?$NP@
	call	??$?6U?$char_traits@D@std@@@std@@YAAEAV?$basic_ostream@DU?$char_traits@D@std@@@0@AEAV10@PEBD@Z ; std::operator<<<std::char_traits<char> >
	mov	rdx, rbx
	mov	rcx, rax
	call	QWORD PTR __imp_??6?$basic_ostream@DU?$char_traits@D@std@@@std@@QEAAAEAV01@P6AAEAV01@AEAV01@@Z@Z
	mov	edx, 1000				; 000003e8H
	mov	ecx, edx
	call	QWORD PTR __imp_Beep
	mov	ecx, 32					; 00000020H
	call	QWORD PTR __imp_GetAsyncKeyState
	test	ax, ax
	je	SHORT $LL2@ringAlarm
; Line 42
	mov	rcx, QWORD PTR __imp_?cout@std@@3V?$basic_ostream@DU?$char_traits@D@std@@@1@A
	lea	rdx, OFFSET FLAT:??_C@_0BE@NJJKMNJJ@?6?a?s?d?h?k?$PM?m?h?j?5?b?$PL?j?k?$PO?w?e?m@
	mov	BYTE PTR ?alarmEnabled@@3_NA, 0		; alarmEnabled
; Line 48
	add	rsp, 32					; 00000020H
	pop	rbx
; Line 42
	jmp	??$?6U?$char_traits@D@std@@@std@@YAAEAV?$basic_ostream@DU?$char_traits@D@std@@@0@AEAV10@PEBD@Z ; std::operator<<<std::char_traits<char> >
?ringAlarm@@YAXXZ ENDP					; ringAlarm
_TEXT	ENDS
; Function compile flags: /Ogspy
;	COMDAT ?setAlarm@@YAXXZ
_TEXT	SEGMENT
?setAlarm@@YAXXZ PROC					; setAlarm, COMDAT
; File C:\sharaga\project\work\progect\progect\progect.cpp
; Line 12
$LN4:
	sub	rsp, 40					; 00000028H
; Line 13
	lea	rdx, OFFSET FLAT:??_C@_02KIEKHFCC@RU@
	xor	ecx, ecx
	call	QWORD PTR __imp_setlocale
; Line 14
	mov	rcx, QWORD PTR __imp_?cout@std@@3V?$basic_ostream@DU?$char_traits@D@std@@@1@A
	lea	rdx, OFFSET FLAT:??_C@_0P@BCKFKEOP@?6?b?b?e?d?h?r?e?5?w?$OA?q?3?5@
	call	??$?6U?$char_traits@D@std@@@std@@YAAEAV?$basic_ostream@DU?$char_traits@D@std@@@0@AEAV10@PEBD@Z ; std::operator<<<std::char_traits<char> >
; Line 15
	mov	rcx, QWORD PTR __imp_?cin@std@@3V?$basic_istream@DU?$char_traits@D@std@@@1@A
	lea	rdx, OFFSET FLAT:?alarmhour@@3HA	; alarmhour
	call	QWORD PTR __imp_??5?$basic_istream@DU?$char_traits@D@std@@@std@@QEAAAEAV01@AEAH@Z
; Line 16
	mov	rcx, QWORD PTR __imp_?cout@std@@3V?$basic_ostream@DU?$char_traits@D@std@@@1@A
	lea	rdx, OFFSET FLAT:??_C@_0BB@HNLMFNO@?b?b?e?d?h?r?e?5?l?h?m?s?r?$PL?3?5@
	call	??$?6U?$char_traits@D@std@@@std@@YAAEAV?$basic_ostream@DU?$char_traits@D@std@@@0@AEAV10@PEBD@Z ; std::operator<<<std::char_traits<char> >
; Line 17
	mov	rcx, QWORD PTR __imp_?cin@std@@3V?$basic_istream@DU?$char_traits@D@std@@@1@A
	lea	rdx, OFFSET FLAT:?alarmminute@@3HA	; alarmminute
	call	QWORD PTR __imp_??5?$basic_istream@DU?$char_traits@D@std@@@std@@QEAAAEAV01@AEAH@Z
; Line 18
	mov	rcx, QWORD PTR __imp_?cout@std@@3V?$basic_ostream@DU?$char_traits@D@std@@@1@A
	lea	rdx, OFFSET FLAT:??_C@_0BC@BCECPLHK@?b?b?e?d?h?r?e?5?q?e?j?s?m?d?$PL?3?5@
	call	??$?6U?$char_traits@D@std@@@std@@YAAEAV?$basic_ostream@DU?$char_traits@D@std@@@0@AEAV10@PEBD@Z ; std::operator<<<std::char_traits<char> >
; Line 19
	mov	rcx, QWORD PTR __imp_?cin@std@@3V?$basic_istream@DU?$char_traits@D@std@@@1@A
	lea	rdx, OFFSET FLAT:?alarmsecond@@3HA	; alarmsecond
	call	QWORD PTR __imp_??5?$basic_istream@DU?$char_traits@D@std@@@std@@QEAAAEAV01@AEAH@Z
; Line 23
	mov	rcx, QWORD PTR __imp_?cout@std@@3V?$basic_ostream@DU?$char_traits@D@std@@@1@A
	lea	rdx, OFFSET FLAT:??_C@_0BK@KHCAIELC@?6?a?s?d?h?k?$PM?m?h?j?5?s?q?r?$OA?m?n?b?k?e?m?5?m?$OA?5@
	mov	BYTE PTR ?alarmEnabled@@3_NA, 1		; alarmEnabled
	call	??$?6U?$char_traits@D@std@@@std@@YAAEAV?$basic_ostream@DU?$char_traits@D@std@@@0@AEAV10@PEBD@Z ; std::operator<<<std::char_traits<char> >
; Line 24
	mov	edx, DWORD PTR ?alarmhour@@3HA		; alarmhour
	mov	rcx, QWORD PTR __imp_?cout@std@@3V?$basic_ostream@DU?$char_traits@D@std@@@1@A
	call	QWORD PTR __imp_??6?$basic_ostream@DU?$char_traits@D@std@@@std@@QEAAAEAV01@H@Z
	mov	rcx, rax
	lea	rdx, OFFSET FLAT:??_C@_01JLIPDDHJ@?3@
	call	??$?6U?$char_traits@D@std@@@std@@YAAEAV?$basic_ostream@DU?$char_traits@D@std@@@0@AEAV10@PEBD@Z ; std::operator<<<std::char_traits<char> >
	mov	edx, DWORD PTR ?alarmminute@@3HA	; alarmminute
	mov	rcx, rax
	call	QWORD PTR __imp_??6?$basic_ostream@DU?$char_traits@D@std@@@std@@QEAAAEAV01@H@Z
	mov	rcx, rax
	lea	rdx, OFFSET FLAT:??_C@_01JLIPDDHJ@?3@
	call	??$?6U?$char_traits@D@std@@@std@@YAAEAV?$basic_ostream@DU?$char_traits@D@std@@@0@AEAV10@PEBD@Z ; std::operator<<<std::char_traits<char> >
	mov	edx, DWORD PTR ?alarmsecond@@3HA	; alarmsecond
	mov	rcx, rax
	call	QWORD PTR __imp_??6?$basic_ostream@DU?$char_traits@D@std@@@std@@QEAAAEAV01@H@Z
	mov	rcx, rax
	lea	rdx, OFFSET FLAT:??$endl@DU?$char_traits@D@std@@@std@@YAAEAV?$basic_ostream@DU?$char_traits@D@std@@@0@AEAV10@@Z ; std::endl<char,std::char_traits<char> >
; Line 25
	add	rsp, 40					; 00000028H
; Line 24
	rex_jmp	QWORD PTR __imp_??6?$basic_ostream@DU?$char_traits@D@std@@@std@@QEAAAEAV01@P6AAEAV01@AEAV01@@Z@Z
?setAlarm@@YAXXZ ENDP					; setAlarm
_TEXT	ENDS
END
